target datalayout = "e-m:e-p270:32:32-p271:32:32-p272:64:64-i64:64-i128:128-f80:128-n8:16:32:64-S128"
target triple = "x86_64-pc-linux-gnu"

%struct.Curl_easy = type { i32, i64, i64, ptr, %struct.Curl_llist_node, %struct.Curl_llist_node, i32, i32, %struct.Curl_message, %struct.easy_pollset, %struct.Names, ptr, ptr, ptr, %struct.SingleRequest, %struct.UserDefined, ptr, ptr, %struct.Progress, %struct.UrlState, ptr, %struct.PureInfo, %struct.curl_tlssessioninfo }
%struct.Curl_llist_node = type { ptr, ptr, ptr, ptr }
%struct.Curl_message = type { %struct.Curl_llist_node, %struct.CURLMsg }
%struct.CURLMsg = type { i32, ptr, %union.anon }
%union.anon = type { ptr }
%struct.easy_pollset = type { [5 x i32], i32, [5 x i8] }
%struct.Names = type { ptr, i32 }
%struct.SingleRequest = type <{ i64, i64, i64, i64, %struct.curltime, i32, i32, i32, i32, i64, i32, i32, i32, i32, ptr, ptr, %struct.bufq, i64, i64, ptr, ptr, %union.anon.0, ptr, i8, i32, [3 x i8] }>
%struct.curltime = type { i64, i32 }
%struct.bufq = type { ptr, ptr, ptr, ptr, i64, i64, i64, i32 }
%union.anon.0 = type { ptr }
%struct.UserDefined = type <{ ptr, ptr, ptr, ptr, ptr, ptr, i16, [6 x i8], i64, i64, i64, ptr, ptr, i64, i16, i16, [4 x i8], ptr, ptr, ptr, ptr, ptr, ptr, ptr, ptr, ptr, ptr, ptr, ptr, ptr, ptr, ptr, ptr, ptr, ptr, ptr, ptr, ptr, ptr, ptr, i32, i32, i32, i32, i32, [4 x i8], i64, i64, i64, i64, i64, i64, i64, i64, ptr, ptr, %struct.curl_mimepart, ptr, ptr, i64, i8, i8, i8, [5 x i8], %struct.ssl_config_data, %struct.ssl_config_data, ptr, i16, i8, i8, [4 x i8], %struct.ssl_general_config, i32, i32, i32, [4 x i8], ptr, ptr, i8, [7 x i8], i64, i8, i8, i8, i8, i32, ptr, ptr, ptr, i8, i8, [2 x i8], i32, [63 x ptr], [8 x ptr], i32, i32, i32, [4 x i8], ptr, ptr, ptr, ptr, ptr, i8, [3 x i8], i32, i32, i32, i64, %struct.Curl_data_priority, ptr, ptr, i64, ptr, i64, ptr, ptr, ptr, i8, [3 x i8], i32, i8, i8, i64, [6 x i8] }>
%struct.curl_mimepart = type { ptr, ptr, i32, i32, ptr, ptr, ptr, ptr, ptr, ptr, ptr, ptr, ptr, ptr, ptr, i64, %struct.mime_state, ptr, %struct.mime_encoder_state, i64 }
%struct.mime_state = type { i32, ptr, i64 }
%struct.mime_encoder_state = type { i64, i64, i64, [256 x i8] }
%struct.ssl_config_data = type { %struct.ssl_primary_config, i64, ptr, ptr, ptr, ptr, ptr, ptr, ptr, i16 }
%struct.ssl_primary_config = type { ptr, ptr, ptr, ptr, ptr, ptr, ptr, ptr, ptr, ptr, ptr, ptr, i8, i32, i8, i8 }
%struct.ssl_general_config = type { i64, i32 }
%struct.Curl_data_priority = type { ptr, ptr, i32, i8 }
%struct.Progress = type { i64, %struct.pgrs_dir, %struct.pgrs_dir, i64, i64, i32, i32, i64, i64, i64, i64, i64, i64, i64, i64, i64, %struct.curltime, %struct.curltime, %struct.curltime, %struct.curltime, [6 x i64], [6 x %struct.curltime], i32, i8 }
%struct.pgrs_dir = type { i64, i64, i64, %struct.pgrs_measure }
%struct.pgrs_measure = type { %struct.curltime, i64 }
%struct.UrlState = type { %struct.curltime, i64, i64, %struct.dynbuf, ptr, i64, ptr, i32, i32, i32, ptr, i64, i32, i64, i32, ptr, %struct.digestdata, %struct.digestdata, %struct.auth, %struct.auth, %struct.Curl_async, ptr, %struct.curltime, %struct.Curl_tree, %struct.Curl_llist, [15 x %struct.time_node], ptr, ptr, i64, i64, %struct.Curl_data_priority, ptr, ptr, ptr, %struct.urlpieces, ptr, ptr, ptr, ptr, ptr, i64, %struct.dynbuf, %struct.Curl_llist, [2 x %struct.curl_header], ptr, i32, ptr, ptr, %struct.store_netrc, %struct.dynamically_allocated_data, i8, i8, i8, i8, i32 }
%struct.digestdata = type { ptr, ptr, ptr, ptr, ptr, ptr, i32, i8, i8 }
%struct.auth = type { i64, i64, i64, i8 }
%struct.Curl_async = type { ptr, ptr, ptr, ptr, i32, i32, i8 }
%struct.Curl_tree = type { ptr, ptr, ptr, ptr, %struct.curltime, ptr }
%struct.time_node = type { %struct.Curl_llist_node, %struct.curltime, i32 }
%struct.urlpieces = type { ptr, ptr, ptr, ptr, ptr, ptr, ptr, ptr }
%struct.dynbuf = type { ptr, i64, i64, i64 }
%struct.Curl_llist = type { ptr, ptr, ptr, i64 }
%struct.curl_header = type { ptr, ptr, i64, i64, i32, ptr }
%struct.store_netrc = type { %struct.dynbuf, ptr, i8 }
%struct.dynamically_allocated_data = type { ptr, ptr, ptr, ptr, ptr, ptr, ptr, ptr, ptr, ptr, ptr, ptr, ptr }
%struct.PureInfo = type { i32, i32, i32, i64, i64, i64, i64, i64, ptr, ptr, i64, i32, %struct.ip_quadruple, i32, ptr, i32, %struct.curl_certinfo, i32, i8 }
%struct.ip_quadruple = type { [46 x i8], [46 x i8], i32, i32 }
%struct.curl_certinfo = type { i32, ptr }
%struct.curl_tlssessioninfo = type { i32, ptr }

; Function Attrs: nounwind uwtable
define dso_local void @Curl_pgrsTimeWas(ptr noundef %0, i32 noundef %1, i64 %2, i32 %3) #0 {
  %5 = alloca %struct.curltime, align 8
  %6 = alloca ptr, align 8
  %7 = alloca i32, align 4
  %8 = alloca ptr, align 8
  %9 = alloca i32, align 4
  %10 = alloca i64, align 8
  %11 = getelementptr inbounds nuw { i64, i32 }, ptr %5, i32 0, i32 0
  store i64 %2, ptr %11, align 8
  %12 = getelementptr inbounds nuw { i64, i32 }, ptr %5, i32 0, i32 1
  store i32 %3, ptr %12, align 8
  store ptr %0, ptr %6, align 8, !tbaa !4
  store i32 %1, ptr %7, align 4, !tbaa !78
  call void @llvm.lifetime.start.p0(i64 8, ptr %8) #5
  store ptr null, ptr %8, align 8, !tbaa !89
  %13 = load i32, ptr %7, align 4, !tbaa !78
  switch i32 %13, label %14 [
    i32 0, label %105
    i32 1, label %15
    i32 2, label %19
    i32 3, label %29
    i32 10, label %45
    i32 4, label %49
    i32 5, label %53
    i32 6, label %57
    i32 7, label %61
    i32 8, label %65
    i32 9, label %85
    i32 11, label %89
  ]

14:                                               ; preds = %4
  br label %105

15:                                               ; preds = %4
  %16 = load ptr, ptr %6, align 8, !tbaa !4
  %17 = getelementptr inbounds nuw %struct.Curl_easy, ptr %16, i32 0, i32 18
  %18 = getelementptr inbounds nuw %struct.Progress, ptr %17, i32 0, i32 18
  call void @llvm.memcpy.p0.p0.i64(ptr align 8 %18, ptr align 8 %5, i64 16, i1 false), !tbaa.struct !91
  br label %105

19:                                               ; preds = %4
  %20 = load ptr, ptr %6, align 8, !tbaa !4
  %21 = getelementptr inbounds nuw %struct.Curl_easy, ptr %20, i32 0, i32 18
  %22 = getelementptr inbounds nuw %struct.Progress, ptr %21, i32 0, i32 17
  call void @llvm.memcpy.p0.p0.i64(ptr align 8 %22, ptr align 8 %5, i64 16, i1 false), !tbaa.struct !91
  %23 = load ptr, ptr %6, align 8, !tbaa !4
  %24 = getelementptr inbounds nuw %struct.Curl_easy, ptr %23, i32 0, i32 18
  %25 = getelementptr inbounds nuw %struct.Progress, ptr %24, i32 0, i32 23
  %26 = load i8, ptr %25, align 4
  %27 = and i8 %26, -3
  %28 = or i8 %27, 0
  store i8 %28, ptr %25, align 4
  br label %105

29:                                               ; preds = %4
  %30 = load ptr, ptr %6, align 8, !tbaa !4
  %31 = getelementptr inbounds nuw %struct.Curl_easy, ptr %30, i32 0, i32 18
  %32 = getelementptr inbounds nuw %struct.Progress, ptr %31, i32 0, i32 18
  %33 = getelementptr inbounds nuw { i64, i32 }, ptr %5, i32 0, i32 0
  %34 = load i64, ptr %33, align 8
  %35 = getelementptr inbounds nuw { i64, i32 }, ptr %5, i32 0, i32 1
  %36 = load i32, ptr %35, align 8
  %37 = getelementptr inbounds nuw { i64, i32 }, ptr %32, i32 0, i32 0
  %38 = load i64, ptr %37, align 8
  %39 = getelementptr inbounds nuw { i64, i32 }, ptr %32, i32 0, i32 1
  %40 = load i32, ptr %39, align 8
  %41 = call i64 @Curl_timediff_us(i64 %34, i32 %36, i64 %38, i32 %40)
  %42 = load ptr, ptr %6, align 8, !tbaa !4
  %43 = getelementptr inbounds nuw %struct.Curl_easy, ptr %42, i32 0, i32 18
  %44 = getelementptr inbounds nuw %struct.Progress, ptr %43, i32 0, i32 8
  store i64 %41, ptr %44, align 8, !tbaa !92
  br label %105

45:                                               ; preds = %4
  %46 = load ptr, ptr %6, align 8, !tbaa !4
  %47 = getelementptr inbounds nuw %struct.Curl_easy, ptr %46, i32 0, i32 18
  %48 = getelementptr inbounds nuw %struct.Progress, ptr %47, i32 0, i32 19
  call void @llvm.memcpy.p0.p0.i64(ptr align 8 %48, ptr align 8 %5, i64 16, i1 false), !tbaa.struct !91
  br label %105

49:                                               ; preds = %4
  %50 = load ptr, ptr %6, align 8, !tbaa !4
  %51 = getelementptr inbounds nuw %struct.Curl_easy, ptr %50, i32 0, i32 18
  %52 = getelementptr inbounds nuw %struct.Progress, ptr %51, i32 0, i32 9
  store ptr %52, ptr %8, align 8, !tbaa !89
  br label %105

53:                                               ; preds = %4
  %54 = load ptr, ptr %6, align 8, !tbaa !4
  %55 = getelementptr inbounds nuw %struct.Curl_easy, ptr %54, i32 0, i32 18
  %56 = getelementptr inbounds nuw %struct.Progress, ptr %55, i32 0, i32 10
  store ptr %56, ptr %8, align 8, !tbaa !89
  br label %105

57:                                               ; preds = %4
  %58 = load ptr, ptr %6, align 8, !tbaa !4
  %59 = getelementptr inbounds nuw %struct.Curl_easy, ptr %58, i32 0, i32 18
  %60 = getelementptr inbounds nuw %struct.Progress, ptr %59, i32 0, i32 11
  store ptr %60, ptr %8, align 8, !tbaa !89
  br label %105

61:                                               ; preds = %4
  %62 = load ptr, ptr %6, align 8, !tbaa !4
  %63 = getelementptr inbounds nuw %struct.Curl_easy, ptr %62, i32 0, i32 18
  %64 = getelementptr inbounds nuw %struct.Progress, ptr %63, i32 0, i32 12
  store ptr %64, ptr %8, align 8, !tbaa !89
  br label %105

65:                                               ; preds = %4
  %66 = load ptr, ptr %6, align 8, !tbaa !4
  %67 = getelementptr inbounds nuw %struct.Curl_easy, ptr %66, i32 0, i32 18
  %68 = getelementptr inbounds nuw %struct.Progress, ptr %67, i32 0, i32 14
  store ptr %68, ptr %8, align 8, !tbaa !89
  %69 = load ptr, ptr %6, align 8, !tbaa !4
  %70 = getelementptr inbounds nuw %struct.Curl_easy, ptr %69, i32 0, i32 18
  %71 = getelementptr inbounds nuw %struct.Progress, ptr %70, i32 0, i32 23
  %72 = load i8, ptr %71, align 4
  %73 = lshr i8 %72, 1
  %74 = and i8 %73, 1
  %75 = zext i8 %74 to i32
  %76 = icmp ne i32 %75, 0
  br i1 %76, label %77, label %78

77:                                               ; preds = %65
  store i32 1, ptr %9, align 4
  br label %130

78:                                               ; preds = %65
  %79 = load ptr, ptr %6, align 8, !tbaa !4
  %80 = getelementptr inbounds nuw %struct.Curl_easy, ptr %79, i32 0, i32 18
  %81 = getelementptr inbounds nuw %struct.Progress, ptr %80, i32 0, i32 23
  %82 = load i8, ptr %81, align 4
  %83 = and i8 %82, -3
  %84 = or i8 %83, 2
  store i8 %84, ptr %81, align 4
  br label %105

85:                                               ; preds = %4
  %86 = load ptr, ptr %6, align 8, !tbaa !4
  %87 = getelementptr inbounds nuw %struct.Curl_easy, ptr %86, i32 0, i32 18
  %88 = getelementptr inbounds nuw %struct.Progress, ptr %87, i32 0, i32 13
  store ptr %88, ptr %8, align 8, !tbaa !89
  br label %105

89:                                               ; preds = %4
  %90 = load ptr, ptr %6, align 8, !tbaa !4
  %91 = getelementptr inbounds nuw %struct.Curl_easy, ptr %90, i32 0, i32 18
  %92 = getelementptr inbounds nuw %struct.Progress, ptr %91, i32 0, i32 16
  %93 = getelementptr inbounds nuw { i64, i32 }, ptr %5, i32 0, i32 0
  %94 = load i64, ptr %93, align 8
  %95 = getelementptr inbounds nuw { i64, i32 }, ptr %5, i32 0, i32 1
  %96 = load i32, ptr %95, align 8
  %97 = getelementptr inbounds nuw { i64, i32 }, ptr %92, i32 0, i32 0
  %98 = load i64, ptr %97, align 8
  %99 = getelementptr inbounds nuw { i64, i32 }, ptr %92, i32 0, i32 1
  %100 = load i32, ptr %99, align 8
  %101 = call i64 @Curl_timediff_us(i64 %94, i32 %96, i64 %98, i32 %100)
  %102 = load ptr, ptr %6, align 8, !tbaa !4
  %103 = getelementptr inbounds nuw %struct.Curl_easy, ptr %102, i32 0, i32 18
  %104 = getelementptr inbounds nuw %struct.Progress, ptr %103, i32 0, i32 15
  store i64 %101, ptr %104, align 8, !tbaa !93
  br label %105

105:                                              ; preds = %89, %85, %4, %78, %61, %57, %53, %49, %45, %29, %19, %15, %14
  %106 = load ptr, ptr %8, align 8, !tbaa !89
  %107 = icmp ne ptr %106, null
  br i1 %107, label %108, label %129

108:                                              ; preds = %105
  call void @llvm.lifetime.start.p0(i64 8, ptr %10) #5
  %109 = load ptr, ptr %6, align 8, !tbaa !4
  %110 = getelementptr inbounds nuw %struct.Curl_easy, ptr %109, i32 0, i32 18
  %111 = getelementptr inbounds nuw %struct.Progress, ptr %110, i32 0, i32 17
  %112 = getelementptr inbounds nuw { i64, i32 }, ptr %5, i32 0, i32 0
  %113 = load i64, ptr %112, align 8
  %114 = getelementptr inbounds nuw { i64, i32 }, ptr %5, i32 0, i32 1
  %115 = load i32, ptr %114, align 8
  %116 = getelementptr inbounds nuw { i64, i32 }, ptr %111, i32 0, i32 0
  %117 = load i64, ptr %116, align 8
  %118 = getelementptr inbounds nuw { i64, i32 }, ptr %111, i32 0, i32 1
  %119 = load i32, ptr %118, align 8
  %120 = call i64 @Curl_timediff_us(i64 %113, i32 %115, i64 %117, i32 %119)
  store i64 %120, ptr %10, align 8, !tbaa !86
  %121 = load i64, ptr %10, align 8, !tbaa !86
  %122 = icmp slt i64 %121, 1
  br i1 %122, label %123, label %124

123:                                              ; preds = %108
  store i64 1, ptr %10, align 8, !tbaa !86
  br label %124

124:                                              ; preds = %123, %108
  %125 = load i64, ptr %10, align 8, !tbaa !86
  %126 = load ptr, ptr %8, align 8, !tbaa !89
  %127 = load i64, ptr %126, align 8, !tbaa !86
  %128 = add nsw i64 %127, %125
  store i64 %128, ptr %126, align 8, !tbaa !86
  call void @llvm.lifetime.end.p0(i64 8, ptr %10) #5
  br label %129

129:                                              ; preds = %124, %105
  store i32 0, ptr %9, align 4
  br label %130

130:                                              ; preds = %129, %77
  call void @llvm.lifetime.end.p0(i64 8, ptr %8) #5
  %131 = load i32, ptr %9, align 4
  switch i32 %131, label %133 [
    i32 0, label %132
    i32 1, label %132
  ]

132:                                              ; preds = %130, %130
  ret void

133:                                              ; preds = %130
  unreachable
}