; Function Attrs: nounwind uwtable
define dso_local void @Curl_pgrsTimeWas(ptr noundef captures(none) %0, i32 noundef %1, i64 %2, i32 %3) local_unnamed_addr #0 {
  switch i32 %1, label %.thread [
    i32 11, label %38
    i32 1, label %5
    i32 2, label %7
    i32 3, label %12
    i32 10, label %19
    i32 4, label %21
    i32 5, label %23
    i32 6, label %25
    i32 7, label %27
    i32 8, label %29
    i32 9, label %36
  ]

5:                                                ; preds = %4
  %6 = getelementptr inbounds nuw i8, ptr %0, i64 2824
  store i64 %2, ptr %6, align 8, !tbaa !93
  %.sroa.7.0..sroa_idx = getelementptr inbounds nuw i8, ptr %0, i64 2832
  store i32 %3, ptr %.sroa.7.0..sroa_idx, align 8, !tbaa !99
  br label %.thread

7:                                                ; preds = %4
  %8 = getelementptr inbounds nuw i8, ptr %0, i64 2808
  store i64 %2, ptr %8, align 8, !tbaa !93
  %.sroa.7.0..sroa_idx25 = getelementptr inbounds nuw i8, ptr %0, i64 2816
  store i32 %3, ptr %.sroa.7.0..sroa_idx25, align 8, !tbaa !99
  %9 = getelementptr inbounds nuw i8, ptr %0, i64 3004
  %10 = load i8, ptr %9, align 4
  %11 = and i8 %10, -3
  store i8 %11, ptr %9, align 4
  br label %.thread

12:                                               ; preds = %4
  %13 = getelementptr inbounds nuw i8, ptr %0, i64 2824
  %14 = load i64, ptr %13, align 8
  %15 = getelementptr inbounds nuw i8, ptr %0, i64 2832
  %16 = load i32, ptr %15, align 8
  %17 = tail call i64 @Curl_timediff_us(i64 %2, i32 %3, i64 %14, i32 %16) #8
  %18 = getelementptr inbounds nuw i8, ptr %0, i64 2728
  store i64 %17, ptr %18, align 8, !tbaa !100
  br label %.thread

19:                                               ; preds = %4
  %20 = getelementptr inbounds nuw i8, ptr %0, i64 2840
  store i64 %2, ptr %20, align 8, !tbaa !93
  %.sroa.7.0..sroa_idx27 = getelementptr inbounds nuw i8, ptr %0, i64 2848
  store i32 %3, ptr %.sroa.7.0..sroa_idx27, align 8, !tbaa !99
  br label %.thread

21:                                               ; preds = %4
  %22 = getelementptr inbounds nuw i8, ptr %0, i64 2736
  br label %45

23:                                               ; preds = %4
  %24 = getelementptr inbounds nuw i8, ptr %0, i64 2744
  br label %45

25:                                               ; preds = %4
  %26 = getelementptr inbounds nuw i8, ptr %0, i64 2752
  br label %45

27:                                               ; preds = %4
  %28 = getelementptr inbounds nuw i8, ptr %0, i64 2760
  br label %45

29:                                               ; preds = %4
  %30 = getelementptr inbounds nuw i8, ptr %0, i64 3004
  %31 = load i8, ptr %30, align 4
  %32 = and i8 %31, 2
  %.not = icmp eq i8 %32, 0
  br i1 %.not, label %33, label %.thread

33:                                               ; preds = %29
  %34 = getelementptr inbounds nuw i8, ptr %0, i64 2776
  %35 = or disjoint i8 %31, 2
  store i8 %35, ptr %30, align 4
  br label %45

36:                                               ; preds = %4
  %37 = getelementptr inbounds nuw i8, ptr %0, i64 2768
  br label %45

38:                                               ; preds = %4
  %39 = getelementptr inbounds nuw i8, ptr %0, i64 2792
  %40 = load i64, ptr %39, align 8
  %41 = getelementptr inbounds nuw i8, ptr %0, i64 2800
  %42 = load i32, ptr %41, align 8
  %43 = tail call i64 @Curl_timediff_us(i64 %2, i32 %3, i64 %40, i32 %42) #8
  %44 = getelementptr inbounds nuw i8, ptr %0, i64 2784
  store i64 %43, ptr %44, align 8, !tbaa !101
  br label %.thread

45:                                               ; preds = %21, %23, %25, %27, %33, %36
  %.0 = phi ptr [ %37, %36 ], [ %34, %33 ], [ %28, %27 ], [ %26, %25 ], [ %24, %23 ], [ %22, %21 ]
  %46 = getelementptr inbounds nuw i8, ptr %0, i64 2808
  %47 = load i64, ptr %46, align 8
  %48 = getelementptr inbounds nuw i8, ptr %0, i64 2816
  %49 = load i32, ptr %48, align 8
  %50 = tail call i64 @Curl_timediff_us(i64 %2, i32 %3, i64 %47, i32 %49) #8
  %spec.store.select = tail call i64 @llvm.smax.i64(i64 %50, i64 1)
  %51 = load i64, ptr %.0, align 8, !tbaa !93
  %52 = add nsw i64 %51, %spec.store.select
  store i64 %52, ptr %.0, align 8, !tbaa !93
  br label %.thread

.thread:                                          ; preds = %38, %5, %7, %12, %19, %4, %45, %29
  ret void
}